; Function Attrs: mustprogress nounwind uwtable
define void @_ZN4toml2v34path5clearEv(ptr noundef nonnull align 8 captures(none) dereferenceable(24) %0) local_unnamed_addr #8 align 2 personality ptr @__gxx_personality_v0 {
  %2 = load ptr, ptr %0, align 8, !tbaa !202
  %3 = getelementptr inbounds nuw i8, ptr %0, i64 8
  %4 = load ptr, ptr %3, align 8, !tbaa !200
  %.not.i.i = icmp eq ptr %4, %2
  br i1 %.not.i.i, label %_ZNSt6vectorIN4toml2v314path_componentESaIS2_EE5clearEv.exit, label %.lr.ph.i.i.i.i.i

.lr.ph.i.i.i.i.i:                                 ; preds = %1, %_ZSt8_DestroyIN4toml2v314path_componentEEvPT_.exit.i.i.i.i.i
  %.05.i.i.i.i.i = phi ptr [ %17, %_ZSt8_DestroyIN4toml2v314path_componentEEvPT_.exit.i.i.i.i.i ], [ %2, %1 ]
  %5 = getelementptr inbounds nuw i8, ptr %.05.i.i.i.i.i, i64 32
  %6 = load i8, ptr %5, align 8, !tbaa !184
  %7 = icmp eq i8 %6, 1
  br i1 %7, label %8, label %_ZSt8_DestroyIN4toml2v314path_componentEEvPT_.exit.i.i.i.i.i

8:                                                ; preds = %.lr.ph.i.i.i.i.i
  %9 = load ptr, ptr %.05.i.i.i.i.i, align 8, !tbaa !3
  %10 = getelementptr inbounds nuw i8, ptr %.05.i.i.i.i.i, i64 16
  %11 = icmp eq ptr %9, %10
  br i1 %11, label %_ZNKSt7__cxx1112basic_stringIcSt11char_traitsIcESaIcEE11_M_is_localEv.exit.thread.i.i.i.i.i.i.i.i.i.i, label %_ZNKSt7__cxx1112basic_stringIcSt11char_traitsIcESaIcEE11_M_is_localEv.exit.i.i.i.i.i.i.i.i.i.i

_ZNKSt7__cxx1112basic_stringIcSt11char_traitsIcESaIcEE11_M_is_localEv.exit.thread.i.i.i.i.i.i.i.i.i.i: ; preds = %8
  %12 = getelementptr inbounds nuw i8, ptr %.05.i.i.i.i.i, i64 8
  %13 = load i64, ptr %12, align 8, !tbaa !11
  %14 = icmp ult i64 %13, 16
  tail call void @llvm.assume(i1 %14)
  br label %_ZSt8_DestroyIN4toml2v314path_componentEEvPT_.exit.i.i.i.i.i

_ZNKSt7__cxx1112basic_stringIcSt11char_traitsIcESaIcEE11_M_is_localEv.exit.i.i.i.i.i.i.i.i.i.i: ; preds = %8
  %15 = load i64, ptr %10, align 8, !tbaa !15
  %16 = add i64 %15, 1
  tail call void @_ZdlPvm(ptr noundef %9, i64 noundef %16) #51
  br label %_ZSt8_DestroyIN4toml2v314path_componentEEvPT_.exit.i.i.i.i.i

_ZSt8_DestroyIN4toml2v314path_componentEEvPT_.exit.i.i.i.i.i: ; preds = %_ZNKSt7__cxx1112basic_stringIcSt11char_traitsIcESaIcEE11_M_is_localEv.exit.i.i.i.i.i.i.i.i.i.i, %_ZNKSt7__cxx1112basic_stringIcSt11char_traitsIcESaIcEE11_M_is_localEv.exit.thread.i.i.i.i.i.i.i.i.i.i, %.lr.ph.i.i.i.i.i
  %17 = getelementptr inbounds nuw i8, ptr %.05.i.i.i.i.i, i64 40
  %.not.i.i.i.i.i = icmp eq ptr %17, %4
  br i1 %.not.i.i.i.i.i, label %_ZSt8_DestroyIPN4toml2v314path_componentES2_EvT_S4_RSaIT0_E.exit.i.i, label %.lr.ph.i.i.i.i.i, !llvm.loop !205

_ZSt8_DestroyIPN4toml2v314path_componentES2_EvT_S4_RSaIT0_E.exit.i.i: ; preds = %_ZSt8_DestroyIN4toml2v314path_componentEEvPT_.exit.i.i.i.i.i
  store ptr %2, ptr %3, align 8, !tbaa !200
  br label %_ZNSt6vectorIN4toml2v314path_componentESaIS2_EE5clearEv.exit

_ZNSt6vectorIN4toml2v314path_componentESaIS2_EE5clearEv.exit: ; preds = %1, %_ZSt8_DestroyIPN4toml2v314path_componentES2_EvT_S4_RSaIT0_E.exit.i.i
  ret void
}